; Function Attrs: nounwind sspstrong uwtable
define internal fastcc void @buffer_append(ptr noundef %0, ptr noundef readonly captures(none) %1, i64 noundef %2) unnamed_addr #0 {
  %.not = icmp eq i64 %2, 0
  br i1 %.not, label %37, label %4, !prof !84

4:                                                ; preds = %3
  %5 = getelementptr inbounds nuw i8, ptr %0, i64 96
  %6 = load i64, ptr %5, align 8, !tbaa !16
  %7 = add i64 %6, %2
  %8 = icmp ugt i64 %7, 4095
  br i1 %8, label %9, label %ruby_nonempty_memcpy.exit

9:                                                ; preds = %4
  %.not.i.i = icmp eq i64 %6, 0
  br i1 %.not.i.i, label %dump_flush.exit.i, label %10

10:                                               ; preds = %9
  %11 = getelementptr inbounds nuw i8, ptr %0, i64 24
  %12 = load ptr, ptr %11, align 8, !tbaa !23
  %.not24.i.i = icmp eq ptr %12, null
  br i1 %.not24.i.i, label %23, label %13

13:                                               ; preds = %10
  %14 = getelementptr inbounds nuw i8, ptr %0, i64 104
  %15 = tail call i64 @fwrite(ptr noundef nonnull %14, i64 noundef 1, i64 noundef %6, ptr noundef nonnull %12)
  %16 = load i64, ptr %5, align 8, !tbaa !16
  %17 = icmp ult i64 %15, %16
  br i1 %17, label %18, label %.sink.split.i.i

18:                                               ; preds = %13
  %19 = getelementptr inbounds nuw i8, ptr %14, i64 %15
  %20 = sub nuw i64 %16, %15
  tail call void @llvm.memmove.p0.p0.i64(ptr noundef nonnull align 1 %14, ptr noundef nonnull align 1 %19, i64 noundef %20, i1 noundef false) #12
  %21 = load i64, ptr %5, align 8, !tbaa !16
  %22 = sub i64 %21, %15
  br label %.sink.split.i.i

23:                                               ; preds = %10
  %24 = getelementptr inbounds nuw i8, ptr %0, i64 16
  %25 = load i64, ptr %24, align 8, !tbaa !24
  %.not25.i.i = icmp eq i64 %25, 0
  br i1 %.not25.i.i, label %.sink.split.i.i, label %26

26:                                               ; preds = %23
  %27 = getelementptr inbounds nuw i8, ptr %0, i64 104
  %28 = tail call i64 @rb_str_cat(i64 noundef %25, ptr noundef nonnull %27, i64 noundef %6) #12
  br label %.sink.split.i.i

.sink.split.i.i:                                  ; preds = %26, %23, %18, %13
  %.sink.i.i = phi i64 [ %22, %18 ], [ 0, %13 ], [ 0, %23 ], [ 0, %26 ]
  store i64 %.sink.i.i, ptr %5, align 8, !tbaa !16
  br label %dump_flush.exit.i

dump_flush.exit.i:                                ; preds = %.sink.split.i.i, %9
  %29 = phi i64 [ 0, %9 ], [ %.sink.i.i, %.sink.split.i.i ]
  %30 = add i64 %29, %2
  %31 = icmp ugt i64 %30, 4095
  br i1 %31, label %32, label %ruby_nonempty_memcpy.exit

32:                                               ; preds = %dump_flush.exit.i
  %33 = load i64, ptr @rb_eIOError, align 8, !tbaa !82
  tail call void (i64, ptr, ...) @rb_raise(i64 noundef %33, ptr noundef nonnull @.str.55) #15
  unreachable

ruby_nonempty_memcpy.exit:                        ; preds = %4, %dump_flush.exit.i
  %.pre-phi = phi i64 [ %7, %4 ], [ %30, %dump_flush.exit.i ]
  %34 = phi i64 [ %6, %4 ], [ %29, %dump_flush.exit.i ]
  %35 = getelementptr inbounds nuw i8, ptr %0, i64 104
  %36 = getelementptr inbounds nuw i8, ptr %35, i64 %34
  tail call void @llvm.memcpy.p0.p0.i64(ptr noundef nonnull align 1 %36, ptr noundef nonnull readonly align 1 %1, i64 noundef range(i64 1, 0) %2, i1 noundef false) #12
  store i64 %.pre-phi, ptr %5, align 8, !tbaa !16
  br label %37

37:                                               ; preds = %ruby_nonempty_memcpy.exit, %3
  ret void
}